target datalayout = "e-m:e-p270:32:32-p271:32:32-p272:64:64-i64:64-i128:128-f80:128-n8:16:32:64-S128"
target triple = "x86_64-pc-linux-gnu"

; Function Attrs: nounwind uwtable
define internal void @Int24_To_Int16_Dither(ptr noundef %0, i32 noundef %1, ptr noundef %2, i32 noundef %3, i32 noundef %4, ptr noundef %5) #0 {
  %7 = alloca ptr, align 8
  %8 = alloca i32, align 4
  %9 = alloca ptr, align 8
  %10 = alloca i32, align 4
  %11 = alloca i32, align 4
  %12 = alloca ptr, align 8
  %13 = alloca ptr, align 8
  %14 = alloca ptr, align 8
  %15 = alloca i32, align 4
  %16 = alloca i32, align 4
  store ptr %0, ptr %7, align 8, !tbaa !70
  store i32 %1, ptr %8, align 4, !tbaa !71
  store ptr %2, ptr %9, align 8, !tbaa !70
  store i32 %3, ptr %10, align 4, !tbaa !71
  store i32 %4, ptr %11, align 4, !tbaa !71
  store ptr %5, ptr %12, align 8, !tbaa !73
  call void @llvm.lifetime.start.p0(i64 8, ptr %13) #4
  %17 = load ptr, ptr %9, align 8, !tbaa !70
  store ptr %17, ptr %13, align 8, !tbaa !87
  call void @llvm.lifetime.start.p0(i64 8, ptr %14) #4
  %18 = load ptr, ptr %7, align 8, !tbaa !70
  store ptr %18, ptr %14, align 8, !tbaa !94
  call void @llvm.lifetime.start.p0(i64 4, ptr %15) #4
  call void @llvm.lifetime.start.p0(i64 4, ptr %16) #4
  br label %19

19:                                               ; preds = %23, %6
  %20 = load i32, ptr %11, align 4, !tbaa !71
  %21 = add i32 %20, -1
  store i32 %21, ptr %11, align 4, !tbaa !71
  %22 = icmp ne i32 %20, 0
  br i1 %22, label %23, label %61

23:                                               ; preds = %19
  %24 = load ptr, ptr %13, align 8, !tbaa !87
  %25 = getelementptr inbounds i8, ptr %24, i64 0
  %26 = load i8, ptr %25, align 1, !tbaa !89
  %27 = zext i8 %26 to i32
  %28 = shl i32 %27, 8
  store i32 %28, ptr %15, align 4, !tbaa !71
  %29 = load i32, ptr %15, align 4, !tbaa !71
  %30 = load ptr, ptr %13, align 8, !tbaa !87
  %31 = getelementptr inbounds i8, ptr %30, i64 1
  %32 = load i8, ptr %31, align 1, !tbaa !89
  %33 = zext i8 %32 to i32
  %34 = shl i32 %33, 16
  %35 = or i32 %29, %34
  store i32 %35, ptr %15, align 4, !tbaa !71
  %36 = load i32, ptr %15, align 4, !tbaa !71
  %37 = load ptr, ptr %13, align 8, !tbaa !87
  %38 = getelementptr inbounds i8, ptr %37, i64 2
  %39 = load i8, ptr %38, align 1, !tbaa !89
  %40 = zext i8 %39 to i32
  %41 = shl i32 %40, 24
  %42 = or i32 %36, %41
  store i32 %42, ptr %15, align 4, !tbaa !71
  %43 = load ptr, ptr %12, align 8, !tbaa !73
  %44 = call i32 @PaUtil_Generate16BitTriangularDither(ptr noundef %43)
  store i32 %44, ptr %16, align 4, !tbaa !71
  %45 = load i32, ptr %15, align 4, !tbaa !71
  %46 = ashr i32 %45, 1
  %47 = load i32, ptr %16, align 4, !tbaa !71
  %48 = add nsw i32 %46, %47
  %49 = ashr i32 %48, 15
  %50 = trunc i32 %49 to i16
  %51 = load ptr, ptr %14, align 8, !tbaa !94
  store i16 %50, ptr %51, align 2, !tbaa !96
  %52 = load i32, ptr %10, align 4, !tbaa !71
  %53 = mul nsw i32 %52, 3
  %54 = load ptr, ptr %13, align 8, !tbaa !87
  %55 = sext i32 %53 to i64
  %56 = getelementptr inbounds i8, ptr %54, i64 %55
  store ptr %56, ptr %13, align 8, !tbaa !87
  %57 = load i32, ptr %8, align 4, !tbaa !71
  %58 = load ptr, ptr %14, align 8, !tbaa !94
  %59 = sext i32 %57 to i64
  %60 = getelementptr inbounds i16, ptr %58, i64 %59
  store ptr %60, ptr %14, align 8, !tbaa !94
  br label %19, !llvm.loop !121

61:                                               ; preds = %19
  call void @llvm.lifetime.end.p0(i64 4, ptr %16) #4
  call void @llvm.lifetime.end.p0(i64 4, ptr %15) #4
  call void @llvm.lifetime.end.p0(i64 8, ptr %14) #4
  call void @llvm.lifetime.end.p0(i64 8, ptr %13) #4
  ret void
}