; Function Attrs: nounwind uwtable
define internal void @Int24_To_Int16_Dither(ptr noundef writeonly captures(none) %0, i32 noundef %1, ptr noundef readonly captures(none) %2, i32 noundef %3, i32 noundef %4, ptr noundef %5) #3 {
  %.not17 = icmp eq i32 %4, 0
  br i1 %.not17, label %._crit_edge, label %.lr.ph

.lr.ph:                                           ; preds = %6
  %7 = mul nsw i32 %3, 3
  %8 = sext i32 %7 to i64
  %9 = sext i32 %1 to i64
  br label %10

10:                                               ; preds = %.lr.ph, %10
  %.020 = phi i32 [ %4, %.lr.ph ], [ %11, %10 ]
  %.01519 = phi ptr [ %2, %.lr.ph ], [ %24, %10 ]
  %.01618 = phi ptr [ %0, %.lr.ph ], [ %25, %10 ]
  %11 = add i32 %.020, -1
  %12 = load i16, ptr %.01519, align 1
  %13 = zext i16 %12 to i32
  %14 = shl nuw nsw i32 %13, 7
  %15 = getelementptr inbounds nuw i8, ptr %.01519, i64 2
  %16 = load i8, ptr %15, align 1, !tbaa !76
  %17 = zext i8 %16 to i32
  %18 = shl nuw nsw i32 %17, 23
  %19 = or disjoint i32 %18, %14
  %20 = tail call i32 @PaUtil_Generate16BitTriangularDither(ptr noundef %5) #9
  %21 = add i32 %19, %20
  %22 = lshr i32 %21, 15
  %23 = trunc i32 %22 to i16
  store i16 %23, ptr %.01618, align 2, !tbaa !81
  %24 = getelementptr inbounds i8, ptr %.01519, i64 %8
  %25 = getelementptr inbounds i16, ptr %.01618, i64 %9
  %.not = icmp eq i32 %11, 0
  br i1 %.not, label %._crit_edge, label %10, !llvm.loop !105

._crit_edge:                                      ; preds = %10, %6
  ret void
}